; Function Attrs: nounwind sspstrong uwtable
define internal void @ide_device_class_init(ptr noundef %klass, ptr readnone captures(none) %data) #0 {
entry:
  %call.i = tail call ptr @object_class_dynamic_cast_assert(ptr noundef %klass, ptr noundef nonnull @.str.11, ptr noundef nonnull @.str.6, i32 noundef 77, ptr noundef nonnull @__func__.DEVICE_CLASS) #6
  %realize = getelementptr inbounds nuw i8, ptr %call.i, i64 144
  store ptr @ide_qdev_realize, ptr %realize, align 8
  %categories = getelementptr inbounds nuw i8, ptr %call.i, i64 96
  %0 = load i64, ptr %categories, align 8
  %or.i = or i64 %0, 4
  store i64 %or.i, ptr %categories, align 8
  %bus_type = getelementptr inbounds nuw i8, ptr %call.i, i64 168
  store ptr @.str, ptr %bus_type, align 8
  tail call void @device_class_set_props(ptr noundef %call.i, ptr noundef nonnull @ide_props) #6
  ret void
}